target datalayout = "e-m:e-p270:32:32-p271:32:32-p272:64:64-i64:64-i128:128-f80:128-n8:16:32:64-S128"
target triple = "x86_64-pc-linux-gnu"

%struct.AVFilterLink = type { ptr, ptr, ptr, ptr, i32, i32, i32, i32, %struct.AVRational, i32, i32, i32, %struct.AVChannelLayout, %struct.AVRational, ptr, i32, %struct.AVFilterFormatsConfig, %struct.AVFilterFormatsConfig }
%struct.AVChannelLayout = type { i32, i32, %union.anon.1, ptr }
%union.anon.1 = type { i64 }
%struct.AVRational = type { i32, i32 }
%struct.AVFilterFormatsConfig = type { ptr, ptr, ptr, ptr, ptr }
%struct.AVFrame = type { [8 x ptr], [8 x i32], ptr, i32, i32, i32, i32, i32, %struct.AVRational, i64, i64, %struct.AVRational, i32, ptr, i32, i32, [8 x ptr], ptr, i32, ptr, i32, i32, i32, i32, i32, i32, i32, i64, ptr, i32, ptr, ptr, i64, i64, i64, i64, ptr, %struct.AVChannelLayout, i64 }
%struct.AVFilterContext = type { ptr, ptr, ptr, ptr, ptr, i32, ptr, ptr, i32, ptr, ptr, i32, i32, ptr, ptr, ptr, ptr, i32, ptr, i32, i32 }

; Function Attrs: nounwind uwtable
define internal i32 @filter_frame(ptr noundef %0, ptr noundef %1) #1 {
  %3 = alloca i32, align 4
  %4 = alloca ptr, align 8
  %5 = alloca ptr, align 8
  %6 = alloca ptr, align 8
  %7 = alloca i32, align 4
  %8 = alloca i32, align 4
  store ptr %0, ptr %4, align 8, !tbaa !4
  store ptr %1, ptr %5, align 8, !tbaa !9
  call void @llvm.lifetime.start.p0(i64 8, ptr %6) #7
  %9 = load ptr, ptr %4, align 8, !tbaa !4
  %10 = getelementptr inbounds nuw %struct.AVFilterLink, ptr %9, i32 0, i32 2
  %11 = load ptr, ptr %10, align 8, !tbaa !11
  store ptr %11, ptr %6, align 8, !tbaa !23
  call void @llvm.lifetime.start.p0(i64 4, ptr %7) #7
  %12 = load ptr, ptr %6, align 8, !tbaa !23
  %13 = load ptr, ptr %5, align 8, !tbaa !9
  %14 = load ptr, ptr %5, align 8, !tbaa !9
  %15 = getelementptr inbounds nuw %struct.AVFrame, ptr %14, i32 0, i32 4
  %16 = load i32, ptr %15, align 4, !tbaa !24
  %17 = load ptr, ptr %6, align 8, !tbaa !23
  %18 = call i32 @ff_filter_get_nb_threads(ptr noundef %17) #8
  %19 = icmp sgt i32 %16, %18
  br i1 %19, label %20, label %23

20:                                               ; preds = %2
  %21 = load ptr, ptr %6, align 8, !tbaa !23
  %22 = call i32 @ff_filter_get_nb_threads(ptr noundef %21) #8
  br label %27

23:                                               ; preds = %2
  %24 = load ptr, ptr %5, align 8, !tbaa !9
  %25 = getelementptr inbounds nuw %struct.AVFrame, ptr %24, i32 0, i32 4
  %26 = load i32, ptr %25, align 4, !tbaa !24
  br label %27

27:                                               ; preds = %23, %20
  %28 = phi i32 [ %22, %20 ], [ %26, %23 ]
  %29 = call i32 @ff_filter_execute(ptr noundef %12, ptr noundef @do_despill_slice, ptr noundef %13, ptr noundef null, i32 noundef %28)
  store i32 %29, ptr %7, align 4, !tbaa !31
  %30 = icmp ne i32 %29, 0
  br i1 %30, label %31, label %33

31:                                               ; preds = %27
  %32 = load i32, ptr %7, align 4, !tbaa !31
  store i32 %32, ptr %3, align 4
  store i32 1, ptr %8, align 4
  br label %41

33:                                               ; preds = %27
  %34 = load ptr, ptr %6, align 8, !tbaa !23
  %35 = getelementptr inbounds nuw %struct.AVFilterContext, ptr %34, i32 0, i32 7
  %36 = load ptr, ptr %35, align 8, !tbaa !32
  %37 = getelementptr inbounds ptr, ptr %36, i64 0
  %38 = load ptr, ptr %37, align 8, !tbaa !4
  %39 = load ptr, ptr %5, align 8, !tbaa !9
  %40 = call i32 @ff_filter_frame(ptr noundef %38, ptr noundef %39)
  store i32 %40, ptr %3, align 4
  store i32 1, ptr %8, align 4
  br label %41

41:                                               ; preds = %33, %31
  call void @llvm.lifetime.end.p0(i64 4, ptr %7) #7
  call void @llvm.lifetime.end.p0(i64 8, ptr %6) #7
  %42 = load i32, ptr %3, align 4
  ret i32 %42
}