; Function Attrs: nounwind uwtable
define internal i32 @filter_frame(ptr noundef readonly captures(none) %0, ptr noundef %1) #1 {
  %3 = getelementptr inbounds nuw i8, ptr %0, i64 16
  %4 = load ptr, ptr %3, align 8, !tbaa !4
  %5 = getelementptr inbounds nuw i8, ptr %1, i64 108
  %6 = load i32, ptr %5, align 4, !tbaa !19
  %7 = tail call i32 @ff_filter_get_nb_threads(ptr noundef %4) #7
  %. = tail call i32 @llvm.smin.i32(i32 %6, i32 %7)
  %8 = tail call i32 @ff_filter_execute(ptr noundef %4, ptr noundef nonnull @do_despill_slice, ptr noundef %1, ptr noundef null, i32 noundef %.) #8
  %.not = icmp eq i32 %8, 0
  br i1 %.not, label %9, label %14

9:                                                ; preds = %2
  %10 = getelementptr inbounds nuw i8, ptr %4, i64 56
  %11 = load ptr, ptr %10, align 8, !tbaa !26
  %12 = load ptr, ptr %11, align 8, !tbaa !35
  %13 = tail call i32 @ff_filter_frame(ptr noundef %12, ptr noundef nonnull %1) #8
  br label %14

14:                                               ; preds = %2, %9
  %.0 = phi i32 [ %13, %9 ], [ %8, %2 ]
  ret i32 %.0
}